; Function Attrs: nounwind uwtable
define hidden noalias ptr @mi_zalloc(i64 noundef %0) local_unnamed_addr #3 {
  %2 = tail call align 8 ptr @llvm.threadlocal.address.p0(ptr align 8 @_mi_heap_default)
  %3 = load ptr, ptr %2, align 8, !tbaa !3
  %4 = icmp ult i64 %0, 1025
  br i1 %4, label %5, label %28, !prof !8

5:                                                ; preds = %1
  %6 = add nuw nsw i64 %0, 7
  %7 = lshr i64 %6, 3
  %8 = getelementptr inbounds nuw i8, ptr %3, i64 232
  %9 = getelementptr inbounds nuw [129 x ptr], ptr %8, i64 0, i64 %7
  %10 = load ptr, ptr %9, align 8, !tbaa !9
  %11 = getelementptr inbounds nuw i8, ptr %10, i64 8
  %12 = load ptr, ptr %11, align 8, !tbaa !11
  %13 = icmp eq ptr %12, null
  br i1 %13, label %14, label %16, !prof !17

14:                                               ; preds = %5
  %15 = tail call noalias ptr @_mi_malloc_generic(ptr noundef nonnull %3, i64 noundef %0, i1 noundef zeroext true, i64 noundef 0) #19
  br label %mi_heap_zalloc.exit

16:                                               ; preds = %5
  %.val.i.i.i.i.i = load i64, ptr %12, align 8, !tbaa !18
  %17 = inttoptr i64 %.val.i.i.i.i.i to ptr
  store ptr %17, ptr %11, align 8, !tbaa !11
  %18 = getelementptr inbounds nuw i8, ptr %10, i64 24
  %19 = load i16, ptr %18, align 8, !tbaa !20
  %20 = add i16 %19, 1
  store i16 %20, ptr %18, align 8, !tbaa !20
  %21 = getelementptr inbounds nuw i8, ptr %10, i64 7
  %22 = load i8, ptr %21, align 1
  %23 = and i8 %22, 1
  %.not.i.i.i.i.i = icmp eq i8 %23, 0
  br i1 %.not.i.i.i.i.i, label %25, label %24

24:                                               ; preds = %16
  store i64 0, ptr %12, align 8, !tbaa !18
  br label %mi_heap_zalloc.exit

25:                                               ; preds = %16
  %26 = getelementptr inbounds nuw i8, ptr %10, i64 32
  %27 = load i64, ptr %26, align 8, !tbaa !21
  call void @llvm.assume(i1 true) [ "align"(ptr %12, i64 8) ]
  tail call void @llvm.memset.p0.i64(ptr nonnull align 8 %12, i8 0, i64 %27, i1 false)
  br label %mi_heap_zalloc.exit

28:                                               ; preds = %1
  %29 = tail call noalias ptr @_mi_malloc_generic(ptr noundef %3, i64 noundef %0, i1 noundef zeroext true, i64 noundef 0) #19
  br label %mi_heap_zalloc.exit

mi_heap_zalloc.exit:                              ; preds = %14, %24, %25, %28
  %.0.i.i.i = phi ptr [ %29, %28 ], [ %15, %14 ], [ %12, %24 ], [ %12, %25 ]
  ret ptr %.0.i.i.i
}